target datalayout = "e-m:e-p270:32:32-p271:32:32-p272:64:64-i64:64-i128:128-f80:128-n8:16:32:64-S128"
target triple = "x86_64-pc-linux-gnu"

%struct.Sfm_Ntk_t_ = type { ptr, i32, i32, i32, i32, i32, ptr, ptr, ptr, %struct.Vec_Wec_t_, ptr, ptr, %struct.Vec_Wec_t_, %struct.Vec_Int_t_, %struct.Vec_Int_t_, %struct.Vec_Int_t_, %struct.Vec_Int_t_, %struct.Vec_Int_t_, ptr, ptr, %struct.Vec_Int_t_, %struct.Vec_Int_t_, i32, i32, i32, ptr, ptr, ptr, ptr, ptr, i32, i32, i32, i32, i32, i32, i32, i32, ptr, ptr, ptr, ptr, ptr, ptr, ptr, ptr, [12 x [64 x i64]], [12 x ptr], [64 x i64], [64 x i64], i32, i32, i32, i32, i32, i32, i32, i32, i32, i64, i64, i64, i64, i64, i64 }
%struct.Vec_Wec_t_ = type { i32, i32, ptr }
%struct.Vec_Int_t_ = type { i32, i32, ptr }

; Function Attrs: inlinehint nounwind uwtable
define internal i64 @Abc_Tt6Stretch(i64 noundef %0, i32 noundef %1) #3 {
  %3 = alloca i64, align 8
  %4 = alloca i32, align 4
  store i64 %0, ptr %3, align 8, !tbaa !10
  store i32 %1, ptr %4, align 4, !tbaa !8
  %5 = load i32, ptr %4, align 4, !tbaa !8
  %6 = icmp eq i32 %5, 0
  br i1 %6, label %7, label %16

7:                                                ; preds = %2
  %8 = load i32, ptr %4, align 4, !tbaa !8
  %9 = add nsw i32 %8, 1
  store i32 %9, ptr %4, align 4, !tbaa !8
  %10 = load i64, ptr %3, align 8, !tbaa !10
  %11 = and i64 %10, 1
  %12 = load i64, ptr %3, align 8, !tbaa !10
  %13 = and i64 %12, 1
  %14 = shl i64 %13, 1
  %15 = or i64 %11, %14
  store i64 %15, ptr %3, align 8, !tbaa !10
  br label %16

16:                                               ; preds = %7, %2
  %17 = load i32, ptr %4, align 4, !tbaa !8
  %18 = icmp eq i32 %17, 1
  br i1 %18, label %19, label %28

19:                                               ; preds = %16
  %20 = load i32, ptr %4, align 4, !tbaa !8
  %21 = add nsw i32 %20, 1
  store i32 %21, ptr %4, align 4, !tbaa !8
  %22 = load i64, ptr %3, align 8, !tbaa !10
  %23 = and i64 %22, 3
  %24 = load i64, ptr %3, align 8, !tbaa !10
  %25 = and i64 %24, 3
  %26 = shl i64 %25, 2
  %27 = or i64 %23, %26
  store i64 %27, ptr %3, align 8, !tbaa !10
  br label %28

28:                                               ; preds = %19, %16
  %29 = load i32, ptr %4, align 4, !tbaa !8
  %30 = icmp eq i32 %29, 2
  br i1 %30, label %31, label %40

31:                                               ; preds = %28
  %32 = load i32, ptr %4, align 4, !tbaa !8
  %33 = add nsw i32 %32, 1
  store i32 %33, ptr %4, align 4, !tbaa !8
  %34 = load i64, ptr %3, align 8, !tbaa !10
  %35 = and i64 %34, 15
  %36 = load i64, ptr %3, align 8, !tbaa !10
  %37 = and i64 %36, 15
  %38 = shl i64 %37, 4
  %39 = or i64 %35, %38
  store i64 %39, ptr %3, align 8, !tbaa !10
  br label %40

40:                                               ; preds = %31, %28
  %41 = load i32, ptr %4, align 4, !tbaa !8
  %42 = icmp eq i32 %41, 3
  br i1 %42, label %43, label %52

43:                                               ; preds = %40
  %44 = load i32, ptr %4, align 4, !tbaa !8
  %45 = add nsw i32 %44, 1
  store i32 %45, ptr %4, align 4, !tbaa !8
  %46 = load i64, ptr %3, align 8, !tbaa !10
  %47 = and i64 %46, 255
  %48 = load i64, ptr %3, align 8, !tbaa !10
  %49 = and i64 %48, 255
  %50 = shl i64 %49, 8
  %51 = or i64 %47, %50
  store i64 %51, ptr %3, align 8, !tbaa !10
  br label %52

52:                                               ; preds = %43, %40
  %53 = load i32, ptr %4, align 4, !tbaa !8
  %54 = icmp eq i32 %53, 4
  br i1 %54, label %55, label %64

55:                                               ; preds = %52
  %56 = load i32, ptr %4, align 4, !tbaa !8
  %57 = add nsw i32 %56, 1
  store i32 %57, ptr %4, align 4, !tbaa !8
  %58 = load i64, ptr %3, align 8, !tbaa !10
  %59 = and i64 %58, 65535
  %60 = load i64, ptr %3, align 8, !tbaa !10
  %61 = and i64 %60, 65535
  %62 = shl i64 %61, 16
  %63 = or i64 %59, %62
  store i64 %63, ptr %3, align 8, !tbaa !10
  br label %64

64:                                               ; preds = %55, %52
  %65 = load i32, ptr %4, align 4, !tbaa !8
  %66 = icmp eq i32 %65, 5
  br i1 %66, label %67, label %76

67:                                               ; preds = %64
  %68 = load i32, ptr %4, align 4, !tbaa !8
  %69 = add nsw i32 %68, 1
  store i32 %69, ptr %4, align 4, !tbaa !8
  %70 = load i64, ptr %3, align 8, !tbaa !10
  %71 = and i64 %70, 4294967295
  %72 = load i64, ptr %3, align 8, !tbaa !10
  %73 = and i64 %72, 4294967295
  %74 = shl i64 %73, 32
  %75 = or i64 %71, %74
  store i64 %75, ptr %3, align 8, !tbaa !10
  br label %76

76:                                               ; preds = %67, %64
  %77 = load i64, ptr %3, align 8, !tbaa !10
  ret i64 %77
}

; Function Attrs: inlinehint nounwind uwtable
define internal i32 @Vec_IntSize(ptr noundef %0) #3 {
  %2 = alloca ptr, align 8
  store ptr %0, ptr %2, align 8, !tbaa !36
  %3 = load ptr, ptr %2, align 8, !tbaa !36
  %4 = getelementptr inbounds nuw %struct.Vec_Int_t_, ptr %3, i32 0, i32 1
  %5 = load i32, ptr %4, align 4, !tbaa !48
  ret i32 %5
}

; Function Attrs: nounwind uwtable
define i64 @Sfm_ComputeInterpolant2(ptr noundef %0) #0 {
  %2 = alloca i64, align 8
  %3 = alloca ptr, align 8
  %4 = alloca i64, align 8
  %5 = alloca i64, align 8
  %6 = alloca i64, align 8
  %7 = alloca [2 x i64], align 16
  %8 = alloca i32, align 4
  %9 = alloca i32, align 4
  %10 = alloca i32, align 4
  %11 = alloca i32, align 4
  store ptr %0, ptr %3, align 8, !tbaa !3
  call void @llvm.lifetime.start.p0(i64 8, ptr %4) #7
  call void @llvm.lifetime.start.p0(i64 8, ptr %5) #7
  call void @llvm.lifetime.start.p0(i64 8, ptr %6) #7
  call void @llvm.lifetime.start.p0(i64 16, ptr %7) #7
  call void @llvm.lifetime.start.p0(i64 4, ptr %8) #7
  store i32 0, ptr %8, align 4, !tbaa !8
  call void @llvm.lifetime.start.p0(i64 4, ptr %9) #7
  store i32 0, ptr %9, align 4, !tbaa !8
  call void @llvm.lifetime.start.p0(i64 4, ptr %10) #7
  %12 = load ptr, ptr %3, align 8, !tbaa !3
  %13 = getelementptr inbounds [2 x i64], ptr %7, i64 0, i64 0
  %14 = call i32 @Sfm_ComputeInterpolantInt(ptr noundef %12, ptr noundef %13)
  store i32 %14, ptr %10, align 4, !tbaa !8
  %15 = load i32, ptr %10, align 4, !tbaa !8
  %16 = icmp eq i32 %15, 0
  br i1 %16, label %17, label %18

17:                                               ; preds = %1
  store i64 1311768465173141112, ptr %2, align 8
  store i32 1, ptr %11, align 4
  br label %70

18:                                               ; preds = %1
  %19 = load i32, ptr %10, align 4, !tbaa !8
  %20 = icmp eq i32 %19, 1
  br i1 %20, label %21, label %22

21:                                               ; preds = %18
  store i64 -8690466094656961759, ptr %2, align 8
  store i32 1, ptr %11, align 4
  br label %70

22:                                               ; preds = %18
  %23 = getelementptr inbounds [2 x i64], ptr %7, i64 0, i64 0
  %24 = load i64, ptr %23, align 16, !tbaa !10
  %25 = load ptr, ptr %3, align 8, !tbaa !3
  %26 = getelementptr inbounds nuw %struct.Sfm_Ntk_t_, ptr %25, i32 0, i32 41
  %27 = load ptr, ptr %26, align 8, !tbaa !57
  %28 = call i32 @Vec_IntSize(ptr noundef %27)
  %29 = call i64 @Abc_Tt6Stretch(i64 noundef %24, i32 noundef %28)
  %30 = getelementptr inbounds [2 x i64], ptr %7, i64 0, i64 0
  store i64 %29, ptr %30, align 16, !tbaa !10
  %31 = getelementptr inbounds [2 x i64], ptr %7, i64 0, i64 1
  %32 = load i64, ptr %31, align 8, !tbaa !10
  %33 = load ptr, ptr %3, align 8, !tbaa !3
  %34 = getelementptr inbounds nuw %struct.Sfm_Ntk_t_, ptr %33, i32 0, i32 41
  %35 = load ptr, ptr %34, align 8, !tbaa !57
  %36 = call i32 @Vec_IntSize(ptr noundef %35)
  %37 = call i64 @Abc_Tt6Stretch(i64 noundef %32, i32 noundef %36)
  %38 = getelementptr inbounds [2 x i64], ptr %7, i64 0, i64 1
  store i64 %37, ptr %38, align 8, !tbaa !10
  %39 = getelementptr inbounds [2 x i64], ptr %7, i64 0, i64 1
  %40 = load i64, ptr %39, align 8, !tbaa !10
  %41 = getelementptr inbounds [2 x i64], ptr %7, i64 0, i64 0
  %42 = load i64, ptr %41, align 16, !tbaa !10
  %43 = xor i64 %42, -1
  %44 = load ptr, ptr %3, align 8, !tbaa !3
  %45 = getelementptr inbounds nuw %struct.Sfm_Ntk_t_, ptr %44, i32 0, i32 41
  %46 = load ptr, ptr %45, align 8, !tbaa !57
  %47 = call i32 @Vec_IntSize(ptr noundef %46)
  %48 = call i64 @Abc_Tt6Isop(i64 noundef %40, i64 noundef %43, i32 noundef %47, ptr noundef %8)
  store i64 %48, ptr %5, align 8, !tbaa !10
  %49 = getelementptr inbounds [2 x i64], ptr %7, i64 0, i64 0
  %50 = load i64, ptr %49, align 16, !tbaa !10
  %51 = getelementptr inbounds [2 x i64], ptr %7, i64 0, i64 1
  %52 = load i64, ptr %51, align 8, !tbaa !10
  %53 = xor i64 %52, -1
  %54 = load ptr, ptr %3, align 8, !tbaa !3
  %55 = getelementptr inbounds nuw %struct.Sfm_Ntk_t_, ptr %54, i32 0, i32 41
  %56 = load ptr, ptr %55, align 8, !tbaa !57
  %57 = call i32 @Vec_IntSize(ptr noundef %56)
  %58 = call i64 @Abc_Tt6Isop(i64 noundef %50, i64 noundef %53, i32 noundef %57, ptr noundef %9)
  store i64 %58, ptr %6, align 8, !tbaa !10
  %59 = load i32, ptr %8, align 4, !tbaa !8
  %60 = load i32, ptr %9, align 4, !tbaa !8
  %61 = icmp sle i32 %59, %60
  br i1 %61, label %62, label %64

62:                                               ; preds = %22
  %63 = load i64, ptr %5, align 8, !tbaa !10
  br label %67

64:                                               ; preds = %22
  %65 = load i64, ptr %6, align 8, !tbaa !10
  %66 = xor i64 %65, -1
  br label %67

67:                                               ; preds = %64, %62
  %68 = phi i64 [ %63, %62 ], [ %66, %64 ]
  store i64 %68, ptr %4, align 8, !tbaa !10
  %69 = load i64, ptr %4, align 8, !tbaa !10
  store i64 %69, ptr %2, align 8
  store i32 1, ptr %11, align 4
  br label %70

70:                                               ; preds = %67, %21, %17
  call void @llvm.lifetime.end.p0(i64 4, ptr %10) #7
  call void @llvm.lifetime.end.p0(i64 4, ptr %9) #7
  call void @llvm.lifetime.end.p0(i64 4, ptr %8) #7
  call void @llvm.lifetime.end.p0(i64 16, ptr %7) #7
  call void @llvm.lifetime.end.p0(i64 8, ptr %6) #7
  call void @llvm.lifetime.end.p0(i64 8, ptr %5) #7
  call void @llvm.lifetime.end.p0(i64 8, ptr %4) #7
  %71 = load i64, ptr %2, align 8
  ret i64 %71
}