; Function Attrs: nounwind uwtable
define i64 @Sfm_ComputeInterpolant2(ptr noundef captures(none) %0) local_unnamed_addr #0 {
  %2 = alloca [2 x i64], align 16
  %3 = alloca i32, align 4
  %4 = alloca i32, align 4
  call void @llvm.lifetime.start.p0(i64 16, ptr nonnull %2) #10
  call void @llvm.lifetime.start.p0(i64 4, ptr nonnull %3) #10
  store i32 0, ptr %3, align 4, !tbaa !28
  call void @llvm.lifetime.start.p0(i64 4, ptr nonnull %4) #10
  store i32 0, ptr %4, align 4, !tbaa !28
  %5 = call i32 @Sfm_ComputeInterpolantInt(ptr noundef %0, ptr noundef nonnull %2)
  switch i32 %5, label %7 [
    i32 0, label %55
    i32 1, label %6
  ]

6:                                                ; preds = %1
  br label %55

7:                                                ; preds = %1
  %8 = load i64, ptr %2, align 16, !tbaa !55
  %9 = getelementptr inbounds nuw i8, ptr %0, i64 344
  %10 = load ptr, ptr %9, align 8, !tbaa !54
  %11 = getelementptr i8, ptr %10, i64 4
  %.val13 = load i32, ptr %11, align 4, !tbaa !23
  %12 = icmp eq i32 %.val13, 0
  %13 = trunc i64 %8 to i1
  %14 = select i1 %13, i64 3, i64 0
  %15 = icmp ult i32 %.val13, 2
  %16 = and i64 %8, 3
  %17 = select i1 %12, i64 %14, i64 %16
  %18 = mul nuw nsw i64 %17, 5
  %.126.i = select i1 %15, i64 %18, i64 %8
  %.1.i = tail call i32 @llvm.umax.i32(i32 %.val13, i32 2)
  %19 = icmp ult i32 %.val13, 3
  %20 = and i64 %.126.i, 15
  %21 = mul nuw nsw i64 %20, 17
  %.227.i = select i1 %19, i64 %21, i64 %8
  %.2.i = select i1 %19, i32 3, i32 %.1.i
  %22 = icmp eq i32 %.2.i, 3
  %23 = and i64 %.227.i, 255
  %24 = mul nuw nsw i64 %23, 257
  %.328.i = select i1 %22, i64 %24, i64 %.227.i
  %.3.i = select i1 %22, i32 4, i32 %.2.i
  %25 = icmp eq i32 %.3.i, 4
  %26 = and i64 %.328.i, 65535
  %27 = mul nuw nsw i64 %26, 65537
  %.429.i = select i1 %25, i64 %27, i64 %.328.i
  %28 = and i32 %.3.i, -2
  %29 = icmp eq i32 %28, 4
  %30 = and i64 %.429.i, 4294967295
  %31 = mul nuw i64 %30, 4294967297
  %.5.i = select i1 %29, i64 %31, i64 %.429.i
  %32 = getelementptr inbounds nuw i8, ptr %2, i64 8
  %33 = load i64, ptr %32, align 8, !tbaa !55
  %34 = trunc i64 %33 to i1
  %35 = select i1 %34, i64 3, i64 0
  %36 = and i64 %33, 3
  %37 = select i1 %12, i64 %35, i64 %36
  %38 = mul nuw nsw i64 %37, 5
  %.126.i14 = select i1 %15, i64 %38, i64 %33
  %39 = and i64 %.126.i14, 15
  %40 = mul nuw nsw i64 %39, 17
  %.227.i16 = select i1 %19, i64 %40, i64 %33
  %41 = and i64 %.227.i16, 255
  %42 = mul nuw nsw i64 %41, 257
  %.328.i18 = select i1 %22, i64 %42, i64 %.227.i16
  %43 = and i64 %.328.i18, 65535
  %44 = mul nuw nsw i64 %43, 65537
  %.429.i20 = select i1 %25, i64 %44, i64 %.328.i18
  %45 = and i64 %.429.i20, 4294967295
  %46 = mul nuw i64 %45, 4294967297
  %.5.i21 = select i1 %29, i64 %46, i64 %.429.i20
  %47 = xor i64 %.5.i, -1
  %48 = call fastcc i64 @Abc_Tt6Isop(i64 noundef %.5.i21, i64 noundef %47, i32 noundef %.val13, ptr noundef %3)
  %49 = xor i64 %.5.i21, -1
  %50 = call fastcc i64 @Abc_Tt6Isop(i64 noundef %.5.i, i64 noundef %49, i32 noundef %.val13, ptr noundef %4)
  %51 = load i32, ptr %3, align 4, !tbaa !28
  %52 = load i32, ptr %4, align 4, !tbaa !28
  %.not = icmp sgt i32 %51, %52
  %53 = xor i64 %50, -1
  %54 = select i1 %.not, i64 %53, i64 %48
  br label %55

55:                                               ; preds = %1, %7, %6
  %.0 = phi i64 [ -8690466094656961759, %6 ], [ %54, %7 ], [ 1311768465173141112, %1 ]
  call void @llvm.lifetime.end.p0(i64 4, ptr nonnull %4) #10
  call void @llvm.lifetime.end.p0(i64 4, ptr nonnull %3) #10
  call void @llvm.lifetime.end.p0(i64 16, ptr nonnull %2) #10
  ret i64 %.0
}